; Function Attrs: nounwind sspstrong uwtable
define internal i64 @rb_gzfile_close(i64 noundef %0) #0 {
  %2 = tail call ptr @rb_check_typeddata(i64 noundef %0, ptr noundef nonnull @gzfile_data_type) #18
  %3 = load i64, ptr %2, align 8, !tbaa !113
  %4 = and i64 %3, 1
  %.not = icmp eq i64 %4, 0
  br i1 %.not, label %gzfile_close.exit, label %5

5:                                                ; preds = %1
  %6 = getelementptr inbounds nuw i8, ptr %2, i64 152
  %7 = load i64, ptr %6, align 8, !tbaa !117
  %8 = getelementptr inbounds nuw i8, ptr %2, i64 216
  %9 = load ptr, ptr %8, align 8, !tbaa !131
  tail call void %9(ptr noundef nonnull %2) #18
  store i64 4, ptr %6, align 8, !tbaa !117
  %10 = getelementptr inbounds nuw i8, ptr %2, i64 176
  store i64 4, ptr %10, align 8, !tbaa !122
  %11 = getelementptr inbounds nuw i8, ptr %2, i64 184
  store i64 4, ptr %11, align 8, !tbaa !123
  %12 = load i64, ptr @id_close, align 8, !tbaa !6
  %13 = tail call i32 @rb_respond_to(i64 noundef %7, i64 noundef %12) #18
  %.not8.i = icmp eq i32 %13, 0
  br i1 %.not8.i, label %gzfile_close.exit, label %14

14:                                               ; preds = %5
  %15 = load i64, ptr @id_close, align 8, !tbaa !6
  %16 = tail call i64 (i64, i64, i32, ...) @rb_funcall(i64 noundef %7, i64 noundef %15, i32 noundef 0) #18
  br label %gzfile_close.exit

gzfile_close.exit:                                ; preds = %14, %5, %1
  %.0 = phi i64 [ 4, %1 ], [ %7, %5 ], [ %7, %14 ]
  ret i64 %.0
}